; Function Attrs: mustprogress nounwind uwtable
define internal fastcc void @"_ZZ21echo_with_attachment2N8coro_rpc12context_baseIvNS_8protocol17coro_rpc_protocolEEEEN3$_0D2Ev"(ptr %this.24.val) unnamed_addr #6 align 2 personality ptr @__gxx_personality_v0 {
entry:
  %cmp.not.i.i.i.i = icmp eq ptr %this.24.val, null
  br i1 %cmp.not.i.i.i.i, label %_ZN8coro_rpc12context_baseIvNS_8protocol17coro_rpc_protocolEED2Ev.exit, label %if.then.i.i.i.i

if.then.i.i.i.i:                                  ; preds = %entry
  %_M_use_count.i.i.i.i.i = getelementptr inbounds i8, ptr %this.24.val, i64 8
  %0 = load atomic i64, ptr %_M_use_count.i.i.i.i.i acquire, align 8
  %cmp.i.i.i.i.i = icmp eq i64 %0, 4294967297
  %1 = trunc i64 %0 to i32
  br i1 %cmp.i.i.i.i.i, label %if.then.i.i.i.i.i, label %if.end.i.i.i.i.i

if.then.i.i.i.i.i:                                ; preds = %if.then.i.i.i.i
  store i32 0, ptr %_M_use_count.i.i.i.i.i, align 8
  %_M_weak_count.i.i.i.i.i = getelementptr inbounds i8, ptr %this.24.val, i64 12
  store i32 0, ptr %_M_weak_count.i.i.i.i.i, align 4
  %vtable.i.i.i.i.i = load ptr, ptr %this.24.val, align 8
  %vfn.i.i.i.i.i = getelementptr inbounds i8, ptr %vtable.i.i.i.i.i, i64 16
  %2 = load ptr, ptr %vfn.i.i.i.i.i, align 8
  tail call void %2(ptr noundef nonnull align 8 dereferenceable(16) %this.24.val) #30
  br label %if.end8.sink.split.i.i.i.i.i

if.end.i.i.i.i.i:                                 ; preds = %if.then.i.i.i.i
  %3 = load i8, ptr @__libc_single_threaded, align 1
  %tobool.i.i.not.i.i.i.i.i = icmp eq i8 %3, 0
  br i1 %tobool.i.i.not.i.i.i.i.i, label %if.else.i.i.i.i.i.i, label %if.then.i.i.i.i.i.i

if.then.i.i.i.i.i.i:                              ; preds = %if.end.i.i.i.i.i
  %add.i.i.i.i.i.i = add nsw i32 %1, -1
  store i32 %add.i.i.i.i.i.i, ptr %_M_use_count.i.i.i.i.i, align 4
  br label %_ZN9__gnu_cxx27__exchange_and_add_dispatchEPii.exit.i.i.i.i.i

if.else.i.i.i.i.i.i:                              ; preds = %if.end.i.i.i.i.i
  %4 = atomicrmw volatile add ptr %_M_use_count.i.i.i.i.i, i32 -1 acq_rel, align 4
  br label %_ZN9__gnu_cxx27__exchange_and_add_dispatchEPii.exit.i.i.i.i.i

_ZN9__gnu_cxx27__exchange_and_add_dispatchEPii.exit.i.i.i.i.i: ; preds = %if.else.i.i.i.i.i.i, %if.then.i.i.i.i.i.i
  %retval.i.0.i.i.i.i.i = phi i32 [ %1, %if.then.i.i.i.i.i.i ], [ %4, %if.else.i.i.i.i.i.i ]
  %cmp6.i.i.i.i.i = icmp eq i32 %retval.i.0.i.i.i.i.i, 1
  br i1 %cmp6.i.i.i.i.i, label %if.then7.i.i.i.i.i, label %_ZN8coro_rpc12context_baseIvNS_8protocol17coro_rpc_protocolEED2Ev.exit

if.then7.i.i.i.i.i:                               ; preds = %_ZN9__gnu_cxx27__exchange_and_add_dispatchEPii.exit.i.i.i.i.i
  %vtable.i.i.i.i.i.i.i = load ptr, ptr %this.24.val, align 8
  %vfn.i.i.i.i.i.i.i = getelementptr inbounds i8, ptr %vtable.i.i.i.i.i.i.i, i64 16
  %5 = load ptr, ptr %vfn.i.i.i.i.i.i.i, align 8
  tail call void %5(ptr noundef nonnull align 8 dereferenceable(16) %this.24.val) #30
  %_M_weak_count.i.i.i.i.i.i.i = getelementptr inbounds i8, ptr %this.24.val, i64 12
  %6 = load i8, ptr @__libc_single_threaded, align 1
  %tobool.i.i.not.i.i.i.i.i.i.i = icmp eq i8 %6, 0
  br i1 %tobool.i.i.not.i.i.i.i.i.i.i, label %if.else.i.i.i.i.i.i.i.i, label %if.then.i.i.i.i.i.i.i.i

if.then.i.i.i.i.i.i.i.i:                          ; preds = %if.then7.i.i.i.i.i
  %7 = load i32, ptr %_M_weak_count.i.i.i.i.i.i.i, align 4
  %add.i.i.i.i.i.i.i.i = add nsw i32 %7, -1
  store i32 %add.i.i.i.i.i.i.i.i, ptr %_M_weak_count.i.i.i.i.i.i.i, align 4
  br label %_ZN9__gnu_cxx27__exchange_and_add_dispatchEPii.exit.i.i.i.i.i.i.i

if.else.i.i.i.i.i.i.i.i:                          ; preds = %if.then7.i.i.i.i.i
  %8 = atomicrmw volatile add ptr %_M_weak_count.i.i.i.i.i.i.i, i32 -1 acq_rel, align 4
  br label %_ZN9__gnu_cxx27__exchange_and_add_dispatchEPii.exit.i.i.i.i.i.i.i

_ZN9__gnu_cxx27__exchange_and_add_dispatchEPii.exit.i.i.i.i.i.i.i: ; preds = %if.else.i.i.i.i.i.i.i.i, %if.then.i.i.i.i.i.i.i.i
  %retval.i.0.i.i.i.i.i.i.i = phi i32 [ %7, %if.then.i.i.i.i.i.i.i.i ], [ %8, %if.else.i.i.i.i.i.i.i.i ]
  %cmp.i.i.i.i.i.i.i = icmp eq i32 %retval.i.0.i.i.i.i.i.i.i, 1
  br i1 %cmp.i.i.i.i.i.i.i, label %if.end8.sink.split.i.i.i.i.i, label %_ZN8coro_rpc12context_baseIvNS_8protocol17coro_rpc_protocolEED2Ev.exit

if.end8.sink.split.i.i.i.i.i:                     ; preds = %_ZN9__gnu_cxx27__exchange_and_add_dispatchEPii.exit.i.i.i.i.i.i.i, %if.then.i.i.i.i.i
  %vtable2.i.i.i.i.i.i.i = load ptr, ptr %this.24.val, align 8
  %vfn3.i.i.i.i.i.i.i = getelementptr inbounds i8, ptr %vtable2.i.i.i.i.i.i.i, i64 24
  %9 = load ptr, ptr %vfn3.i.i.i.i.i.i.i, align 8
  tail call void %9(ptr noundef nonnull align 8 dereferenceable(16) %this.24.val) #30
  br label %_ZN8coro_rpc12context_baseIvNS_8protocol17coro_rpc_protocolEED2Ev.exit

_ZN8coro_rpc12context_baseIvNS_8protocol17coro_rpc_protocolEED2Ev.exit: ; preds = %entry, %_ZN9__gnu_cxx27__exchange_and_add_dispatchEPii.exit.i.i.i.i.i, %_ZN9__gnu_cxx27__exchange_and_add_dispatchEPii.exit.i.i.i.i.i.i.i, %if.end8.sink.split.i.i.i.i.i
  ret void
}